target datalayout = "e-m:e-p270:32:32-p271:32:32-p272:64:64-i64:64-i128:128-f80:128-n8:16:32:64-S128"
target triple = "x86_64-pc-linux-gnu"

%"class.G1NUMAStats::NodeDataArray" = type { i32, i32, ptr }

; Function Attrs: mustprogress nounwind uwtable
define hidden noundef i64 @_ZNK11G1NUMAStats13NodeDataArray3sumEj(ptr noundef nonnull align 8 dereferenceable(16) %0, i32 noundef %1) #1 align 2 {
  %3 = alloca ptr, align 8
  %4 = alloca i32, align 4
  %5 = alloca i64, align 8
  %6 = alloca i64, align 8
  store ptr %0, ptr %3, align 8
  store i32 %1, ptr %4, align 4
  %7 = load ptr, ptr %3, align 8
  store i64 0, ptr %5, align 8
  store i64 0, ptr %6, align 8
  br label %8

8:                                                ; preds = %26, %2
  %9 = load i64, ptr %6, align 8
  %10 = getelementptr inbounds %"class.G1NUMAStats::NodeDataArray", ptr %7, i32 0, i32 0
  %11 = load i32, ptr %10, align 8
  %12 = zext i32 %11 to i64
  %13 = icmp ult i64 %9, %12
  br i1 %13, label %14, label %29

14:                                               ; preds = %8
  %15 = getelementptr inbounds %"class.G1NUMAStats::NodeDataArray", ptr %7, i32 0, i32 2
  %16 = load ptr, ptr %15, align 8
  %17 = load i32, ptr %4, align 4
  %18 = zext i32 %17 to i64
  %19 = getelementptr inbounds ptr, ptr %16, i64 %18
  %20 = load ptr, ptr %19, align 8
  %21 = load i64, ptr %6, align 8
  %22 = getelementptr inbounds i64, ptr %20, i64 %21
  %23 = load i64, ptr %22, align 8
  %24 = load i64, ptr %5, align 8
  %25 = add i64 %24, %23
  store i64 %25, ptr %5, align 8
  br label %26

26:                                               ; preds = %14
  %27 = load i64, ptr %6, align 8
  %28 = add i64 %27, 1
  store i64 %28, ptr %6, align 8
  br label %8, !llvm.loop !13

29:                                               ; preds = %8
  %30 = load i64, ptr %5, align 8
  ret i64 %30
}