; Function Attrs: mustprogress nofree norecurse nosync nounwind willreturn memory(read, inaccessiblemem: none) uwtable
define hidden noundef i64 @_ZNK11G1NUMAStats13NodeDataArray3sumEj(ptr nocapture noundef nonnull readonly align 8 dereferenceable(16) %0, i32 noundef %1) local_unnamed_addr #5 align 2 {
  %3 = load i32, ptr %0, align 8
  %4 = zext i32 %3 to i64
  %.not = icmp eq i32 %3, 0
  br i1 %.not, label %._crit_edge, label %.lr.ph

.lr.ph:                                           ; preds = %2
  %5 = getelementptr inbounds i8, ptr %0, i64 8
  %6 = load ptr, ptr %5, align 8
  %7 = zext i32 %1 to i64
  %8 = getelementptr inbounds ptr, ptr %6, i64 %7
  %9 = load ptr, ptr %8, align 8
  br label %10

10:                                               ; preds = %.lr.ph, %10
  %.08 = phi i64 [ 0, %.lr.ph ], [ %14, %10 ]
  %.067 = phi i64 [ 0, %.lr.ph ], [ %13, %10 ]
  %11 = getelementptr inbounds i64, ptr %9, i64 %.08
  %12 = load i64, ptr %11, align 8
  %13 = add i64 %12, %.067
  %14 = add nuw nsw i64 %.08, 1
  %exitcond.not = icmp eq i64 %14, %4
  br i1 %exitcond.not, label %._crit_edge, label %10, !llvm.loop !13

._crit_edge:                                      ; preds = %10, %2
  %.06.lcssa = phi i64 [ 0, %2 ], [ %13, %10 ]
  ret i64 %.06.lcssa
}